; Function Attrs: mustprogress uwtable
define internal noundef zeroext i1 @"_ZNSt17_Function_handlerIFvR16cmLocalGeneratorRK19cmListFileBacktraceEZ34cmExportLibraryDependenciesCommandRKSt6vectorINSt7__cxx1112basic_stringIcSt11char_traitsIcESaIcEEESaISC_EER17cmExecutionStatusE3$_0E10_M_managerERSt9_Any_dataRKSL_St18_Manager_operation"(ptr noundef nonnull align 8 captures(none) dereferenceable(16) %0, ptr noundef nonnull readonly align 8 captures(none) dereferenceable(16) %1, i32 noundef %2) #3 align 2 personality ptr @__gxx_personality_v0 {
  switch i32 %2, label %6 [
    i32 0, label %4
    i32 1, label %5
  ]

4:                                                ; preds = %3
  store ptr @"_ZTIZ34cmExportLibraryDependenciesCommandRKSt6vectorINSt7__cxx1112basic_stringIcSt11char_traitsIcESaIcEEESaIS5_EER17cmExecutionStatusE3$_0", ptr %0, align 8
  br label %"_ZNSt14_Function_base13_Base_managerIZ34cmExportLibraryDependenciesCommandRKSt6vectorINSt7__cxx1112basic_stringIcSt11char_traitsIcESaIcEEESaIS7_EER17cmExecutionStatusE3$_0E10_M_managerERSt9_Any_dataRKSG_St18_Manager_operation.exit"

5:                                                ; preds = %3
  %.val = load ptr, ptr %1, align 8
  store ptr %.val, ptr %0, align 8
  br label %"_ZNSt14_Function_base13_Base_managerIZ34cmExportLibraryDependenciesCommandRKSt6vectorINSt7__cxx1112basic_stringIcSt11char_traitsIcESaIcEEESaIS7_EER17cmExecutionStatusE3$_0E10_M_managerERSt9_Any_dataRKSG_St18_Manager_operation.exit"

6:                                                ; preds = %3
  %.val6 = load ptr, ptr %1, align 8
  switch i32 %2, label %"_ZNSt14_Function_base13_Base_managerIZ34cmExportLibraryDependenciesCommandRKSt6vectorINSt7__cxx1112basic_stringIcSt11char_traitsIcESaIcEEESaIS7_EER17cmExecutionStatusE3$_0E10_M_managerERSt9_Any_dataRKSG_St18_Manager_operation.exit" [
    i32 3, label %15
    i32 2, label %7
  ]

7:                                                ; preds = %6
  %8 = tail call noalias noundef nonnull dereferenceable(40) ptr @_Znwm(i64 noundef 40) #17
  invoke void @_ZNSt7__cxx1112basic_stringIcSt11char_traitsIcESaIcEEC1ERKS4_(ptr noundef nonnull align 8 dereferenceable(33) %8, ptr noundef nonnull align 8 dereferenceable(33) %.val6)
          to label %"_ZNSt14_Function_base13_Base_managerIZ34cmExportLibraryDependenciesCommandRKSt6vectorINSt7__cxx1112basic_stringIcSt11char_traitsIcESaIcEEESaIS7_EER17cmExecutionStatusE3$_0E15_M_init_functorIRKSE_EEvRSt9_Any_dataOT_.exit.i" unwind label %9

9:                                                ; preds = %7
  %10 = landingpad { ptr, i32 }
          cleanup
  tail call void @_ZdlPv(ptr noundef nonnull %8) #18
  resume { ptr, i32 } %10

"_ZNSt14_Function_base13_Base_managerIZ34cmExportLibraryDependenciesCommandRKSt6vectorINSt7__cxx1112basic_stringIcSt11char_traitsIcESaIcEEESaIS7_EER17cmExecutionStatusE3$_0E15_M_init_functorIRKSE_EEvRSt9_Any_dataOT_.exit.i": ; preds = %7
  %11 = getelementptr inbounds nuw i8, ptr %8, i64 32
  %12 = getelementptr inbounds nuw i8, ptr %.val6, i64 32
  %13 = load i8, ptr %12, align 8
  %14 = and i8 %13, 1
  store i8 %14, ptr %11, align 8
  store ptr %8, ptr %0, align 8
  br label %"_ZNSt14_Function_base13_Base_managerIZ34cmExportLibraryDependenciesCommandRKSt6vectorINSt7__cxx1112basic_stringIcSt11char_traitsIcESaIcEEESaIS7_EER17cmExecutionStatusE3$_0E10_M_managerERSt9_Any_dataRKSG_St18_Manager_operation.exit"

15:                                               ; preds = %6
  %.val7.i = load ptr, ptr %0, align 8
  %16 = icmp eq ptr %.val7.i, null
  br i1 %16, label %"_ZNSt14_Function_base13_Base_managerIZ34cmExportLibraryDependenciesCommandRKSt6vectorINSt7__cxx1112basic_stringIcSt11char_traitsIcESaIcEEESaIS7_EER17cmExecutionStatusE3$_0E10_M_managerERSt9_Any_dataRKSG_St18_Manager_operation.exit", label %17

17:                                               ; preds = %15
  tail call void @_ZNSt7__cxx1112basic_stringIcSt11char_traitsIcESaIcEED1Ev(ptr noundef nonnull align 8 dereferenceable(33) %.val7.i) #16
  tail call void @_ZdlPv(ptr noundef nonnull %.val7.i) #18
  br label %"_ZNSt14_Function_base13_Base_managerIZ34cmExportLibraryDependenciesCommandRKSt6vectorINSt7__cxx1112basic_stringIcSt11char_traitsIcESaIcEEESaIS7_EER17cmExecutionStatusE3$_0E10_M_managerERSt9_Any_dataRKSG_St18_Manager_operation.exit"

"_ZNSt14_Function_base13_Base_managerIZ34cmExportLibraryDependenciesCommandRKSt6vectorINSt7__cxx1112basic_stringIcSt11char_traitsIcESaIcEEESaIS7_EER17cmExecutionStatusE3$_0E10_M_managerERSt9_Any_dataRKSG_St18_Manager_operation.exit": ; preds = %17, %15, %"_ZNSt14_Function_base13_Base_managerIZ34cmExportLibraryDependenciesCommandRKSt6vectorINSt7__cxx1112basic_stringIcSt11char_traitsIcESaIcEEESaIS7_EER17cmExecutionStatusE3$_0E15_M_init_functorIRKSE_EEvRSt9_Any_dataOT_.exit.i", %6, %5, %4
  ret i1 false
}